target datalayout = "e-m:e-p270:32:32-p271:32:32-p272:64:64-i64:64-i128:128-f80:128-n8:16:32:64-S128"
target triple = "x86_64-unknown-linux-gnu"

%struct.QEnumLookup = type { ptr, ptr, i32 }
%struct.BlockInfo = type { ptr, ptr, ptr, i8, i8, ptr, i8, i8, i8, i32 }

@.str.32 = private unnamed_addr constant [5 x i8] c"type\00", align 1
@BlockDeviceIoStatus_lookup = external constant %struct.QEnumLookup, align 8
@.str.103 = private unnamed_addr constant [7 x i8] c"device\00", align 1
@.str.104 = private unnamed_addr constant [5 x i8] c"qdev\00", align 1
@.str.105 = private unnamed_addr constant [10 x i8] c"removable\00", align 1
@.str.106 = private unnamed_addr constant [7 x i8] c"locked\00", align 1
@.str.107 = private unnamed_addr constant [9 x i8] c"inserted\00", align 1
@.str.108 = private unnamed_addr constant [10 x i8] c"tray_open\00", align 1
@.str.109 = private unnamed_addr constant [10 x i8] c"io-status\00", align 1

; Function Attrs: nounwind sspstrong uwtable
define dso_local zeroext i1 @visit_type_BlockDeviceIoStatus(ptr noundef %v, ptr noundef %name, ptr noundef %obj, ptr noundef %errp) #0 {
entry:
  %v.addr = alloca ptr, align 8
  %name.addr = alloca ptr, align 8
  %obj.addr = alloca ptr, align 8
  %errp.addr = alloca ptr, align 8
  %value = alloca i32, align 4
  %ok = alloca i8, align 1
  store ptr %v, ptr %v.addr, align 8
  store ptr %name, ptr %name.addr, align 8
  store ptr %obj, ptr %obj.addr, align 8
  store ptr %errp, ptr %errp.addr, align 8
  %0 = load ptr, ptr %obj.addr, align 8
  %1 = load i32, ptr %0, align 4
  store i32 %1, ptr %value, align 4
  %2 = load ptr, ptr %v.addr, align 8
  %3 = load ptr, ptr %name.addr, align 8
  %4 = load ptr, ptr %errp.addr, align 8
  %call = call zeroext i1 @visit_type_enum(ptr noundef %2, ptr noundef %3, ptr noundef %value, ptr noundef @BlockDeviceIoStatus_lookup, ptr noundef %4)
  %frombool = zext i1 %call to i8
  store i8 %frombool, ptr %ok, align 1
  %5 = load i32, ptr %value, align 4
  %6 = load ptr, ptr %obj.addr, align 8
  store i32 %5, ptr %6, align 4
  %7 = load i8, ptr %ok, align 1
  %tobool = trunc i8 %7 to i1
  ret i1 %tobool
}

; Function Attrs: nounwind sspstrong uwtable
define dso_local zeroext i1 @visit_type_BlockInfo_members(ptr noundef %v, ptr noundef %obj, ptr noundef %errp) #0 {
entry:
  %retval = alloca i1, align 1
  %v.addr = alloca ptr, align 8
  %obj.addr = alloca ptr, align 8
  %errp.addr = alloca ptr, align 8
  %has_qdev = alloca i8, align 1
  %has_inserted = alloca i8, align 1
  store ptr %v, ptr %v.addr, align 8
  store ptr %obj, ptr %obj.addr, align 8
  store ptr %errp, ptr %errp.addr, align 8
  %0 = load ptr, ptr %obj.addr, align 8
  %qdev = getelementptr inbounds %struct.BlockInfo, ptr %0, i32 0, i32 1
  %1 = load ptr, ptr %qdev, align 8
  %tobool = icmp ne ptr %1, null
  %lnot = xor i1 %tobool, true
  %lnot1 = xor i1 %lnot, true
  %frombool = zext i1 %lnot1 to i8
  store i8 %frombool, ptr %has_qdev, align 1
  %2 = load ptr, ptr %obj.addr, align 8
  %inserted = getelementptr inbounds %struct.BlockInfo, ptr %2, i32 0, i32 5
  %3 = load ptr, ptr %inserted, align 8
  %tobool2 = icmp ne ptr %3, null
  %lnot3 = xor i1 %tobool2, true
  %lnot4 = xor i1 %lnot3, true
  %frombool5 = zext i1 %lnot4 to i8
  store i8 %frombool5, ptr %has_inserted, align 1
  %4 = load ptr, ptr %v.addr, align 8
  %5 = load ptr, ptr %obj.addr, align 8
  %device = getelementptr inbounds %struct.BlockInfo, ptr %5, i32 0, i32 0
  %6 = load ptr, ptr %errp.addr, align 8
  %call = call zeroext i1 @visit_type_str(ptr noundef %4, ptr noundef @.str.103, ptr noundef %device, ptr noundef %6)
  br i1 %call, label %if.end, label %if.then

if.then:                                          ; preds = %entry
  store i1 false, ptr %retval, align 1
  br label %return

if.end:                                           ; preds = %entry
  %7 = load ptr, ptr %v.addr, align 8
  %call6 = call zeroext i1 @visit_optional(ptr noundef %7, ptr noundef @.str.104, ptr noundef %has_qdev)
  br i1 %call6, label %if.then7, label %if.end12

if.then7:                                         ; preds = %if.end
  %8 = load ptr, ptr %v.addr, align 8
  %9 = load ptr, ptr %obj.addr, align 8
  %qdev8 = getelementptr inbounds %struct.BlockInfo, ptr %9, i32 0, i32 1
  %10 = load ptr, ptr %errp.addr, align 8
  %call9 = call zeroext i1 @visit_type_str(ptr noundef %8, ptr noundef @.str.104, ptr noundef %qdev8, ptr noundef %10)
  br i1 %call9, label %if.end11, label %if.then10

if.then10:                                        ; preds = %if.then7
  store i1 false, ptr %retval, align 1
  br label %return

if.end11:                                         ; preds = %if.then7
  br label %if.end12

if.end12:                                         ; preds = %if.end11, %if.end
  %11 = load ptr, ptr %v.addr, align 8
  %12 = load ptr, ptr %obj.addr, align 8
  %type = getelementptr inbounds %struct.BlockInfo, ptr %12, i32 0, i32 2
  %13 = load ptr, ptr %errp.addr, align 8
  %call13 = call zeroext i1 @visit_type_str(ptr noundef %11, ptr noundef @.str.32, ptr noundef %type, ptr noundef %13)
  br i1 %call13, label %if.end15, label %if.then14

if.then14:                                        ; preds = %if.end12
  store i1 false, ptr %retval, align 1
  br label %return

if.end15:                                         ; preds = %if.end12
  %14 = load ptr, ptr %v.addr, align 8
  %15 = load ptr, ptr %obj.addr, align 8
  %removable = getelementptr inbounds %struct.BlockInfo, ptr %15, i32 0, i32 3
  %16 = load ptr, ptr %errp.addr, align 8
  %call16 = call zeroext i1 @visit_type_bool(ptr noundef %14, ptr noundef @.str.105, ptr noundef %removable, ptr noundef %16)
  br i1 %call16, label %if.end18, label %if.then17

if.then17:                                        ; preds = %if.end15
  store i1 false, ptr %retval, align 1
  br label %return

if.end18:                                         ; preds = %if.end15
  %17 = load ptr, ptr %v.addr, align 8
  %18 = load ptr, ptr %obj.addr, align 8
  %locked = getelementptr inbounds %struct.BlockInfo, ptr %18, i32 0, i32 4
  %19 = load ptr, ptr %errp.addr, align 8
  %call19 = call zeroext i1 @visit_type_bool(ptr noundef %17, ptr noundef @.str.106, ptr noundef %locked, ptr noundef %19)
  br i1 %call19, label %if.end21, label %if.then20

if.then20:                                        ; preds = %if.end18
  store i1 false, ptr %retval, align 1
  br label %return

if.end21:                                         ; preds = %if.end18
  %20 = load ptr, ptr %v.addr, align 8
  %call22 = call zeroext i1 @visit_optional(ptr noundef %20, ptr noundef @.str.107, ptr noundef %has_inserted)
  br i1 %call22, label %if.then23, label %if.end28

if.then23:                                        ; preds = %if.end21
  %21 = load ptr, ptr %v.addr, align 8
  %22 = load ptr, ptr %obj.addr, align 8
  %inserted24 = getelementptr inbounds %struct.BlockInfo, ptr %22, i32 0, i32 5
  %23 = load ptr, ptr %errp.addr, align 8
  %call25 = call zeroext i1 @visit_type_BlockDeviceInfo(ptr noundef %21, ptr noundef @.str.107, ptr noundef %inserted24, ptr noundef %23)
  br i1 %call25, label %if.end27, label %if.then26

if.then26:                                        ; preds = %if.then23
  store i1 false, ptr %retval, align 1
  br label %return

if.end27:                                         ; preds = %if.then23
  br label %if.end28

if.end28:                                         ; preds = %if.end27, %if.end21
  %24 = load ptr, ptr %v.addr, align 8
  %25 = load ptr, ptr %obj.addr, align 8
  %has_tray_open = getelementptr inbounds %struct.BlockInfo, ptr %25, i32 0, i32 6
  %call29 = call zeroext i1 @visit_optional(ptr noundef %24, ptr noundef @.str.108, ptr noundef %has_tray_open)
  br i1 %call29, label %if.then30, label %if.end34

if.then30:                                        ; preds = %if.end28
  %26 = load ptr, ptr %v.addr, align 8
  %27 = load ptr, ptr %obj.addr, align 8
  %tray_open = getelementptr inbounds %struct.BlockInfo, ptr %27, i32 0, i32 7
  %28 = load ptr, ptr %errp.addr, align 8
  %call31 = call zeroext i1 @visit_type_bool(ptr noundef %26, ptr noundef @.str.108, ptr noundef %tray_open, ptr noundef %28)
  br i1 %call31, label %if.end33, label %if.then32

if.then32:                                        ; preds = %if.then30
  store i1 false, ptr %retval, align 1
  br label %return

if.end33:                                         ; preds = %if.then30
  br label %if.end34

if.end34:                                         ; preds = %if.end33, %if.end28
  %29 = load ptr, ptr %v.addr, align 8
  %30 = load ptr, ptr %obj.addr, align 8
  %has_io_status = getelementptr inbounds %struct.BlockInfo, ptr %30, i32 0, i32 8
  %call35 = call zeroext i1 @visit_optional(ptr noundef %29, ptr noundef @.str.109, ptr noundef %has_io_status)
  br i1 %call35, label %if.then36, label %if.end40

if.then36:                                        ; preds = %if.end34
  %31 = load ptr, ptr %v.addr, align 8
  %32 = load ptr, ptr %obj.addr, align 8
  %io_status = getelementptr inbounds %struct.BlockInfo, ptr %32, i32 0, i32 9
  %33 = load ptr, ptr %errp.addr, align 8
  %call37 = call zeroext i1 @visit_type_BlockDeviceIoStatus(ptr noundef %31, ptr noundef @.str.109, ptr noundef %io_status, ptr noundef %33)
  br i1 %call37, label %if.end39, label %if.then38

if.then38:                                        ; preds = %if.then36
  store i1 false, ptr %retval, align 1
  br label %return

if.end39:                                         ; preds = %if.then36
  br label %if.end40

if.end40:                                         ; preds = %if.end39, %if.end34
  store i1 true, ptr %retval, align 1
  br label %return

return:                                           ; preds = %if.end40, %if.then38, %if.then32, %if.then26, %if.then20, %if.then17, %if.then14, %if.then10, %if.then
  %34 = load i1, ptr %retval, align 1
  ret i1 %34
}