; Function Attrs: nounwind sspstrong uwtable
define dso_local noundef zeroext i1 @visit_type_BlockInfo_members(ptr noundef %v, ptr noundef %obj, ptr noundef %errp) local_unnamed_addr #0 {
entry:
  %value.i = alloca i32, align 4
  %has_qdev = alloca i8, align 1
  %has_inserted = alloca i8, align 1
  %qdev = getelementptr inbounds nuw i8, ptr %obj, i64 8
  %0 = load ptr, ptr %qdev, align 8
  %tobool = icmp ne ptr %0, null
  %frombool = zext i1 %tobool to i8
  store i8 %frombool, ptr %has_qdev, align 1
  %inserted = getelementptr inbounds nuw i8, ptr %obj, i64 32
  %1 = load ptr, ptr %inserted, align 8
  %tobool2 = icmp ne ptr %1, null
  %frombool5 = zext i1 %tobool2 to i8
  store i8 %frombool5, ptr %has_inserted, align 1
  %call = tail call zeroext i1 @visit_type_str(ptr noundef %v, ptr noundef nonnull @.str.103, ptr noundef %obj, ptr noundef %errp) #5
  br i1 %call, label %if.end, label %return

if.end:                                           ; preds = %entry
  %call6 = call zeroext i1 @visit_optional(ptr noundef %v, ptr noundef nonnull @.str.104, ptr noundef nonnull %has_qdev) #5
  br i1 %call6, label %if.then7, label %if.end12

if.then7:                                         ; preds = %if.end
  %call9 = call zeroext i1 @visit_type_str(ptr noundef %v, ptr noundef nonnull @.str.104, ptr noundef nonnull %qdev, ptr noundef %errp) #5
  br i1 %call9, label %if.end12, label %return

if.end12:                                         ; preds = %if.then7, %if.end
  %type = getelementptr inbounds nuw i8, ptr %obj, i64 16
  %call13 = call zeroext i1 @visit_type_str(ptr noundef %v, ptr noundef nonnull @.str.32, ptr noundef nonnull %type, ptr noundef %errp) #5
  br i1 %call13, label %if.end15, label %return

if.end15:                                         ; preds = %if.end12
  %removable = getelementptr inbounds nuw i8, ptr %obj, i64 24
  %call16 = call zeroext i1 @visit_type_bool(ptr noundef %v, ptr noundef nonnull @.str.105, ptr noundef nonnull %removable, ptr noundef %errp) #5
  br i1 %call16, label %if.end18, label %return

if.end18:                                         ; preds = %if.end15
  %locked = getelementptr inbounds nuw i8, ptr %obj, i64 25
  %call19 = call zeroext i1 @visit_type_bool(ptr noundef %v, ptr noundef nonnull @.str.106, ptr noundef nonnull %locked, ptr noundef %errp) #5
  br i1 %call19, label %if.end21, label %return

if.end21:                                         ; preds = %if.end18
  %call22 = call zeroext i1 @visit_optional(ptr noundef %v, ptr noundef nonnull @.str.107, ptr noundef nonnull %has_inserted) #5
  br i1 %call22, label %if.then23, label %if.end28

if.then23:                                        ; preds = %if.end21
  %call25 = call zeroext i1 @visit_type_BlockDeviceInfo(ptr noundef %v, ptr noundef nonnull @.str.107, ptr noundef nonnull %inserted, ptr noundef %errp)
  br i1 %call25, label %if.end28, label %return

if.end28:                                         ; preds = %if.then23, %if.end21
  %has_tray_open = getelementptr inbounds nuw i8, ptr %obj, i64 40
  %call29 = call zeroext i1 @visit_optional(ptr noundef %v, ptr noundef nonnull @.str.108, ptr noundef nonnull %has_tray_open) #5
  br i1 %call29, label %if.then30, label %if.end34

if.then30:                                        ; preds = %if.end28
  %tray_open = getelementptr inbounds nuw i8, ptr %obj, i64 41
  %call31 = call zeroext i1 @visit_type_bool(ptr noundef %v, ptr noundef nonnull @.str.108, ptr noundef nonnull %tray_open, ptr noundef %errp) #5
  br i1 %call31, label %if.end34, label %return

if.end34:                                         ; preds = %if.then30, %if.end28
  %has_io_status = getelementptr inbounds nuw i8, ptr %obj, i64 42
  %call35 = call zeroext i1 @visit_optional(ptr noundef %v, ptr noundef nonnull @.str.109, ptr noundef nonnull %has_io_status) #5
  br i1 %call35, label %if.then36, label %if.end40

if.then36:                                        ; preds = %if.end34
  %io_status = getelementptr inbounds nuw i8, ptr %obj, i64 44
  call void @llvm.lifetime.start.p0(i64 4, ptr nonnull %value.i)
  %2 = load i32, ptr %io_status, align 4
  store i32 %2, ptr %value.i, align 4
  %call.i = call zeroext i1 @visit_type_enum(ptr noundef %v, ptr noundef nonnull @.str.109, ptr noundef nonnull %value.i, ptr noundef nonnull @BlockDeviceIoStatus_lookup, ptr noundef %errp) #5
  %3 = load i32, ptr %value.i, align 4
  store i32 %3, ptr %io_status, align 4
  call void @llvm.lifetime.end.p0(i64 4, ptr nonnull %value.i)
  br i1 %call.i, label %if.end40, label %return

if.end40:                                         ; preds = %if.then36, %if.end34
  br label %return

return:                                           ; preds = %if.then36, %if.then30, %if.then23, %if.end18, %if.end15, %if.end12, %if.then7, %entry, %if.end40
  %retval.0 = phi i1 [ true, %if.end40 ], [ false, %entry ], [ false, %if.then7 ], [ false, %if.end12 ], [ false, %if.end15 ], [ false, %if.end18 ], [ false, %if.then23 ], [ false, %if.then30 ], [ false, %if.then36 ]
  ret i1 %retval.0
}